target datalayout = "e-m:e-p270:32:32-p271:32:32-p272:64:64-i64:64-i128:128-f80:128-n8:16:32:64-S128"
target triple = "x86_64-pc-linux-gnu"

@.str.45 = private unnamed_addr constant [30 x i8] c"Assertion %s failed at %s:%d\0A\00", align 1
@.str.47 = private unnamed_addr constant [26 x i8] c"libavformat/matroskaenc.c\00", align 1
@.str.54 = private unnamed_addr constant [26 x i8] c"length < (1ULL << 56) - 1\00", align 1
@.str.55 = private unnamed_addr constant [22 x i8] c"bytes >= needed_bytes\00", align 1

; Function Attrs: nounwind uwtable
define internal i32 @ebml_num_size(i64 noundef %0) #0 {
  %2 = alloca i64, align 8
  %3 = alloca i32, align 4
  store i64 %0, ptr %2, align 8, !tbaa !79
  call void @llvm.lifetime.start.p0(i64 4, ptr %3) #16
  store i32 0, ptr %3, align 4, !tbaa !30
  br label %4

4:                                                ; preds = %7, %1
  %5 = load i32, ptr %3, align 4, !tbaa !30
  %6 = add nsw i32 %5, 1
  store i32 %6, ptr %3, align 4, !tbaa !30
  br label %7

7:                                                ; preds = %4
  %8 = load i64, ptr %2, align 8, !tbaa !79
  %9 = lshr i64 %8, 7
  store i64 %9, ptr %2, align 8, !tbaa !79
  %10 = icmp ne i64 %9, 0
  br i1 %10, label %4, label %11, !llvm.loop !202

11:                                               ; preds = %7
  %12 = load i32, ptr %3, align 4, !tbaa !30
  call void @llvm.lifetime.end.p0(i64 4, ptr %3) #16
  ret i32 %12
}

; Function Attrs: nounwind uwtable
define internal void @put_ebml_num(ptr noundef %0, i64 noundef %1, i32 noundef %2) #0 {
  %4 = alloca ptr, align 8
  %5 = alloca i64, align 8
  %6 = alloca i32, align 4
  %7 = alloca i32, align 4
  store ptr %0, ptr %4, align 8, !tbaa !29
  store i64 %1, ptr %5, align 8, !tbaa !79
  store i32 %2, ptr %6, align 4, !tbaa !30
  %8 = load i32, ptr %6, align 4, !tbaa !30
  %9 = mul nsw i32 %8, 7
  %10 = zext i32 %9 to i64
  %11 = shl i64 1, %10
  %12 = load i64, ptr %5, align 8, !tbaa !79
  %13 = or i64 %12, %11
  store i64 %13, ptr %5, align 8, !tbaa !79
  call void @llvm.lifetime.start.p0(i64 4, ptr %7) #16
  %14 = load i32, ptr %6, align 4, !tbaa !30
  %15 = sub nsw i32 %14, 1
  store i32 %15, ptr %7, align 4, !tbaa !30
  br label %16

16:                                               ; preds = %29, %3
  %17 = load i32, ptr %7, align 4, !tbaa !30
  %18 = icmp sge i32 %17, 0
  br i1 %18, label %20, label %19

19:                                               ; preds = %16
  call void @llvm.lifetime.end.p0(i64 4, ptr %7) #16
  br label %32

20:                                               ; preds = %16
  %21 = load ptr, ptr %4, align 8, !tbaa !29
  %22 = load i64, ptr %5, align 8, !tbaa !79
  %23 = load i32, ptr %7, align 4, !tbaa !30
  %24 = mul nsw i32 %23, 8
  %25 = zext i32 %24 to i64
  %26 = lshr i64 %22, %25
  %27 = trunc i64 %26 to i8
  %28 = zext i8 %27 to i32
  call void @avio_w8(ptr noundef %21, i32 noundef %28)
  br label %29

29:                                               ; preds = %20
  %30 = load i32, ptr %7, align 4, !tbaa !30
  %31 = add nsw i32 %30, -1
  store i32 %31, ptr %7, align 4, !tbaa !30
  br label %16, !llvm.loop !203

32:                                               ; preds = %19
  ret void
}

; Function Attrs: nounwind uwtable
define internal i32 @ebml_length_size(i64 noundef %0) #0 {
  %2 = alloca i64, align 8
  store i64 %0, ptr %2, align 8, !tbaa !79
  %3 = load i64, ptr %2, align 8, !tbaa !79
  %4 = add i64 %3, 1
  %5 = call i32 @ebml_num_size(i64 noundef %4)
  ret i32 %5
}

; Function Attrs: nounwind uwtable
define internal void @put_ebml_length(ptr noundef %0, i64 noundef %1, i32 noundef %2) #0 {
  %4 = alloca ptr, align 8
  %5 = alloca i64, align 8
  %6 = alloca i32, align 4
  %7 = alloca i32, align 4
  store ptr %0, ptr %4, align 8, !tbaa !29
  store i64 %1, ptr %5, align 8, !tbaa !79
  store i32 %2, ptr %6, align 4, !tbaa !30
  call void @llvm.lifetime.start.p0(i64 4, ptr %7) #16
  %8 = load i64, ptr %5, align 8, !tbaa !79
  %9 = call i32 @ebml_length_size(i64 noundef %8)
  store i32 %9, ptr %7, align 4, !tbaa !30
  br label %10

10:                                               ; preds = %3
  %11 = load i64, ptr %5, align 8, !tbaa !79
  %12 = icmp ult i64 %11, 72057594037927935
  br i1 %12, label %14, label %13

13:                                               ; preds = %10
  call void (ptr, i32, ptr, ...) @av_log(ptr noundef null, i32 noundef 0, ptr noundef @.str.45, ptr noundef @.str.54, ptr noundef @.str.47, i32 noundef 354)
  call void @abort() #17
  unreachable

14:                                               ; preds = %10
  br label %15

15:                                               ; preds = %14
  br label %16

16:                                               ; preds = %15
  %17 = load i32, ptr %6, align 4, !tbaa !30
  %18 = icmp eq i32 %17, 0
  br i1 %18, label %19, label %21

19:                                               ; preds = %16
  %20 = load i32, ptr %7, align 4, !tbaa !30
  store i32 %20, ptr %6, align 4, !tbaa !30
  br label %21

21:                                               ; preds = %19, %16
  br label %22

22:                                               ; preds = %21
  %23 = load i32, ptr %6, align 4, !tbaa !30
  %24 = load i32, ptr %7, align 4, !tbaa !30
  %25 = icmp sge i32 %23, %24
  br i1 %25, label %27, label %26

26:                                               ; preds = %22
  call void (ptr, i32, ptr, ...) @av_log(ptr noundef null, i32 noundef 0, ptr noundef @.str.45, ptr noundef @.str.55, ptr noundef @.str.47, i32 noundef 360)
  call void @abort() #17
  unreachable

27:                                               ; preds = %22
  br label %28

28:                                               ; preds = %27
  br label %29

29:                                               ; preds = %28
  %30 = load ptr, ptr %4, align 8, !tbaa !29
  %31 = load i64, ptr %5, align 8, !tbaa !79
  %32 = load i32, ptr %6, align 4, !tbaa !30
  call void @put_ebml_num(ptr noundef %30, i64 noundef %31, i32 noundef %32)
  call void @llvm.lifetime.end.p0(i64 4, ptr %7) #16
  ret void
}