; Function Attrs: nounwind uwtable
define internal fastcc void @put_ebml_length(ptr noundef %0, i64 noundef %1, i32 noundef %2) unnamed_addr #0 {
  %4 = add i64 %1, 1
  br label %5

5:                                                ; preds = %5, %3
  %.03.i.i = phi i64 [ %4, %3 ], [ %7, %5 ]
  %.0.i.i = phi i32 [ 0, %3 ], [ %6, %5 ]
  %6 = add nuw nsw i32 %.0.i.i, 1
  %7 = lshr i64 %.03.i.i, 7
  %.not.i.i = icmp ult i64 %.03.i.i, 128
  br i1 %.not.i.i, label %ebml_length_size.exit, label %5, !llvm.loop !220

ebml_length_size.exit:                            ; preds = %5
  %8 = icmp ult i64 %1, 72057594037927935
  br i1 %8, label %10, label %9

9:                                                ; preds = %ebml_length_size.exit
  tail call void (ptr, i32, ptr, ...) @av_log(ptr noundef null, i32 noundef 0, ptr noundef nonnull @.str.45, ptr noundef nonnull @.str.54, ptr noundef nonnull @.str.47, i32 noundef 354) #14
  tail call void @abort() #17
  unreachable

10:                                               ; preds = %ebml_length_size.exit
  %11 = icmp eq i32 %2, 0
  %spec.select = select i1 %11, i32 %6, i32 %2
  %.not.not = icmp sgt i32 %spec.select, %.0.i.i
  br i1 %.not.not, label %13, label %12

12:                                               ; preds = %10
  tail call void (ptr, i32, ptr, ...) @av_log(ptr noundef null, i32 noundef 0, ptr noundef nonnull @.str.45, ptr noundef nonnull @.str.55, ptr noundef nonnull @.str.47, i32 noundef 360) #14
  tail call void @abort() #17
  unreachable

13:                                               ; preds = %10
  %14 = mul nsw i32 %spec.select, 7
  %15 = zext nneg i32 %14 to i64
  %16 = shl nuw i64 1, %15
  %17 = or i64 %16, %1
  %18 = icmp sgt i32 %spec.select, 0
  br i1 %18, label %.lr.ph.preheader.i, label %put_ebml_num.exit

.lr.ph.preheader.i:                               ; preds = %13
  %19 = zext nneg i32 %spec.select to i64
  br label %.lr.ph.i

.lr.ph.i:                                         ; preds = %.lr.ph.i, %.lr.ph.preheader.i
  %indvars.iv.i = phi i64 [ %19, %.lr.ph.preheader.i ], [ %indvars.iv.next.i, %.lr.ph.i ]
  %indvars.iv.next.i = add nsw i64 %indvars.iv.i, -1
  %20 = shl nsw i64 %indvars.iv.next.i, 3
  %21 = lshr i64 %17, %20
  %22 = trunc i64 %21 to i32
  %23 = and i32 %22, 255
  tail call void @avio_w8(ptr noundef %0, i32 noundef %23) #14
  %24 = icmp samesign ugt i64 %indvars.iv.i, 1
  br i1 %24, label %.lr.ph.i, label %put_ebml_num.exit, !llvm.loop !56

put_ebml_num.exit:                                ; preds = %.lr.ph.i, %13
  ret void
}